target datalayout = "e-m:e-p270:32:32-p271:32:32-p272:64:64-i64:64-i128:128-f80:128-n8:16:32:64-S128"
target triple = "x86_64-pc-linux-gnu"

%"class.o3dgc::Adaptive_Bit_Model" = type { i32, i32, i32, i32, i32 }

; Function Attrs: mustprogress nounwind uwtable
define hidden void @_ZN5o3dgc18Adaptive_Bit_Model6updateEv(ptr noundef nonnull align 4 dereferenceable(20) %0) #3 align 2 {
  %2 = alloca ptr, align 8
  %3 = alloca i32, align 4
  store ptr %0, ptr %2, align 8
  %4 = load ptr, ptr %2, align 8
  %5 = getelementptr inbounds nuw %"class.o3dgc::Adaptive_Bit_Model", ptr %4, i32 0, i32 0
  %6 = load i32, ptr %5, align 4
  %7 = getelementptr inbounds nuw %"class.o3dgc::Adaptive_Bit_Model", ptr %4, i32 0, i32 4
  %8 = load i32, ptr %7, align 4
  %9 = add i32 %8, %6
  store i32 %9, ptr %7, align 4
  %10 = icmp ugt i32 %9, 8192
  br i1 %10, label %11, label %32

11:                                               ; preds = %1
  %12 = getelementptr inbounds nuw %"class.o3dgc::Adaptive_Bit_Model", ptr %4, i32 0, i32 4
  %13 = load i32, ptr %12, align 4
  %14 = add i32 %13, 1
  %15 = lshr i32 %14, 1
  %16 = getelementptr inbounds nuw %"class.o3dgc::Adaptive_Bit_Model", ptr %4, i32 0, i32 4
  store i32 %15, ptr %16, align 4
  %17 = getelementptr inbounds nuw %"class.o3dgc::Adaptive_Bit_Model", ptr %4, i32 0, i32 3
  %18 = load i32, ptr %17, align 4
  %19 = add i32 %18, 1
  %20 = lshr i32 %19, 1
  %21 = getelementptr inbounds nuw %"class.o3dgc::Adaptive_Bit_Model", ptr %4, i32 0, i32 3
  store i32 %20, ptr %21, align 4
  %22 = getelementptr inbounds nuw %"class.o3dgc::Adaptive_Bit_Model", ptr %4, i32 0, i32 3
  %23 = load i32, ptr %22, align 4
  %24 = getelementptr inbounds nuw %"class.o3dgc::Adaptive_Bit_Model", ptr %4, i32 0, i32 4
  %25 = load i32, ptr %24, align 4
  %26 = icmp eq i32 %23, %25
  br i1 %26, label %27, label %31

27:                                               ; preds = %11
  %28 = getelementptr inbounds nuw %"class.o3dgc::Adaptive_Bit_Model", ptr %4, i32 0, i32 4
  %29 = load i32, ptr %28, align 4
  %30 = add i32 %29, 1
  store i32 %30, ptr %28, align 4
  br label %31

31:                                               ; preds = %27, %11
  br label %32

32:                                               ; preds = %31, %1
  call void @llvm.lifetime.start.p0(i64 4, ptr %3) #12
  %33 = getelementptr inbounds nuw %"class.o3dgc::Adaptive_Bit_Model", ptr %4, i32 0, i32 4
  %34 = load i32, ptr %33, align 4
  %35 = udiv i32 -2147483648, %34
  store i32 %35, ptr %3, align 4
  %36 = getelementptr inbounds nuw %"class.o3dgc::Adaptive_Bit_Model", ptr %4, i32 0, i32 3
  %37 = load i32, ptr %36, align 4
  %38 = load i32, ptr %3, align 4
  %39 = mul i32 %37, %38
  %40 = lshr i32 %39, 18
  %41 = getelementptr inbounds nuw %"class.o3dgc::Adaptive_Bit_Model", ptr %4, i32 0, i32 2
  store i32 %40, ptr %41, align 4
  %42 = getelementptr inbounds nuw %"class.o3dgc::Adaptive_Bit_Model", ptr %4, i32 0, i32 0
  %43 = load i32, ptr %42, align 4
  %44 = mul i32 5, %43
  %45 = lshr i32 %44, 2
  %46 = getelementptr inbounds nuw %"class.o3dgc::Adaptive_Bit_Model", ptr %4, i32 0, i32 0
  store i32 %45, ptr %46, align 4
  %47 = getelementptr inbounds nuw %"class.o3dgc::Adaptive_Bit_Model", ptr %4, i32 0, i32 0
  %48 = load i32, ptr %47, align 4
  %49 = icmp ugt i32 %48, 64
  br i1 %49, label %50, label %52

50:                                               ; preds = %32
  %51 = getelementptr inbounds nuw %"class.o3dgc::Adaptive_Bit_Model", ptr %4, i32 0, i32 0
  store i32 64, ptr %51, align 4
  br label %52

52:                                               ; preds = %50, %32
  %53 = getelementptr inbounds nuw %"class.o3dgc::Adaptive_Bit_Model", ptr %4, i32 0, i32 0
  %54 = load i32, ptr %53, align 4
  %55 = getelementptr inbounds nuw %"class.o3dgc::Adaptive_Bit_Model", ptr %4, i32 0, i32 1
  store i32 %54, ptr %55, align 4
  call void @llvm.lifetime.end.p0(i64 4, ptr %3) #12
  ret void
}