; Function Attrs: mustprogress nofree norecurse nosync nounwind willreturn memory(argmem: readwrite) uwtable
define hidden void @_ZN5o3dgc18Adaptive_Bit_Model6updateEv(ptr noundef nonnull align 4 captures(none) dereferenceable(20) initializes((4, 12)) %0) local_unnamed_addr #2 align 2 {
  %2 = load i32, ptr %0, align 4
  %3 = getelementptr inbounds nuw i8, ptr %0, i64 16
  %4 = load i32, ptr %3, align 4
  %5 = add i32 %4, %2
  store i32 %5, ptr %3, align 4
  %6 = icmp ugt i32 %5, 8192
  br i1 %6, label %7, label %._crit_edge

._crit_edge:                                      ; preds = %1
  %.phi.trans.insert = getelementptr inbounds nuw i8, ptr %0, i64 12
  %.pre = load i32, ptr %.phi.trans.insert, align 4
  br label %17

7:                                                ; preds = %1
  %8 = add i32 %5, 1
  %9 = lshr i32 %8, 1
  store i32 %9, ptr %3, align 4
  %10 = getelementptr inbounds nuw i8, ptr %0, i64 12
  %11 = load i32, ptr %10, align 4
  %12 = add i32 %11, 1
  %13 = lshr i32 %12, 1
  store i32 %13, ptr %10, align 4
  %14 = icmp eq i32 %13, %9
  br i1 %14, label %15, label %17

15:                                               ; preds = %7
  %16 = add nuw i32 %9, 1
  store i32 %16, ptr %3, align 4
  br label %17

17:                                               ; preds = %._crit_edge, %7, %15
  %18 = phi i32 [ %13, %7 ], [ %9, %15 ], [ %.pre, %._crit_edge ]
  %19 = phi i32 [ %9, %7 ], [ %16, %15 ], [ %5, %._crit_edge ]
  %20 = udiv i32 -2147483648, %19
  %21 = mul i32 %18, %20
  %22 = lshr i32 %21, 18
  %23 = getelementptr inbounds nuw i8, ptr %0, i64 8
  store i32 %22, ptr %23, align 4
  %24 = mul i32 %2, 5
  %25 = tail call i32 @llvm.umin.i32(i32 %24, i32 259)
  %spec.select = lshr i32 %25, 2
  store i32 %spec.select, ptr %0, align 4
  %26 = getelementptr inbounds nuw i8, ptr %0, i64 4
  store i32 %spec.select, ptr %26, align 4
  ret void
}